
myDataCache:     file format elf32-i386


Disassembly of section .init:

080483a0 <_init>:
 80483a0:	53                   	push   %ebx
 80483a1:	83 ec 08             	sub    $0x8,%esp
 80483a4:	e8 00 00 00 00       	call   80483a9 <_init+0x9>
 80483a9:	5b                   	pop    %ebx
 80483aa:	81 c3 4b 1c 00 00    	add    $0x1c4b,%ebx
 80483b0:	8b 83 fc ff ff ff    	mov    -0x4(%ebx),%eax
 80483b6:	85 c0                	test   %eax,%eax
 80483b8:	74 05                	je     80483bf <_init+0x1f>
 80483ba:	e8 31 00 00 00       	call   80483f0 <__gmon_start__@plt>
 80483bf:	e8 fc 00 00 00       	call   80484c0 <frame_dummy>
 80483c4:	e8 07 02 00 00       	call   80485d0 <__do_global_ctors_aux>
 80483c9:	83 c4 08             	add    $0x8,%esp
 80483cc:	5b                   	pop    %ebx
 80483cd:	c3                   	ret    

Disassembly of section .plt:

080483d0 <__cxa_atexit@plt-0x10>:
 80483d0:	ff 35 f8 9f 04 08    	pushl  0x8049ff8
 80483d6:	ff 25 fc 9f 04 08    	jmp    *0x8049ffc
 80483dc:	00 00                	add    %al,(%eax)
	...

080483e0 <__cxa_atexit@plt>:
 80483e0:	ff 25 00 a0 04 08    	jmp    *0x804a000
 80483e6:	68 00 00 00 00       	push   $0x0
 80483eb:	e9 e0 ff ff ff       	jmp    80483d0 <_init+0x30>

080483f0 <__gmon_start__@plt>:
 80483f0:	ff 25 04 a0 04 08    	jmp    *0x804a004
 80483f6:	68 08 00 00 00       	push   $0x8
 80483fb:	e9 d0 ff ff ff       	jmp    80483d0 <_init+0x30>

08048400 <_ZNSt8ios_base4InitC1Ev@plt>:
 8048400:	ff 25 08 a0 04 08    	jmp    *0x804a008
 8048406:	68 10 00 00 00       	push   $0x10
 804840b:	e9 c0 ff ff ff       	jmp    80483d0 <_init+0x30>

08048410 <__libc_start_main@plt>:
 8048410:	ff 25 0c a0 04 08    	jmp    *0x804a00c
 8048416:	68 18 00 00 00       	push   $0x18
 804841b:	e9 b0 ff ff ff       	jmp    80483d0 <_init+0x30>

08048420 <_ZNSt8ios_base4InitD1Ev@plt>:
 8048420:	ff 25 10 a0 04 08    	jmp    *0x804a010
 8048426:	68 20 00 00 00       	push   $0x20
 804842b:	e9 a0 ff ff ff       	jmp    80483d0 <_init+0x30>

Disassembly of section .text:

08048430 <_start>:
 8048430:	31 ed                	xor    %ebp,%ebp
 8048432:	5e                   	pop    %esi
 8048433:	89 e1                	mov    %esp,%ecx
 8048435:	83 e4 f0             	and    $0xfffffff0,%esp
 8048438:	50                   	push   %eax
 8048439:	54                   	push   %esp
 804843a:	52                   	push   %edx
 804843b:	68 c0 85 04 08       	push   $0x80485c0
 8048440:	68 50 85 04 08       	push   $0x8048550
 8048445:	51                   	push   %ecx
 8048446:	56                   	push   %esi
 8048447:	68 e4 84 04 08       	push   $0x80484e4
 804844c:	e8 bf ff ff ff       	call   8048410 <__libc_start_main@plt>
 8048451:	f4                   	hlt    
 8048452:	90                   	nop
 8048453:	90                   	nop
 8048454:	90                   	nop
 8048455:	90                   	nop
 8048456:	90                   	nop
 8048457:	90                   	nop
 8048458:	90                   	nop
 8048459:	90                   	nop
 804845a:	90                   	nop
 804845b:	90                   	nop
 804845c:	90                   	nop
 804845d:	90                   	nop
 804845e:	90                   	nop
 804845f:	90                   	nop

08048460 <__do_global_dtors_aux>:
 8048460:	55                   	push   %ebp
 8048461:	89 e5                	mov    %esp,%ebp
 8048463:	53                   	push   %ebx
 8048464:	83 ec 04             	sub    $0x4,%esp
 8048467:	80 3d 1c a0 04 08 00 	cmpb   $0x0,0x804a01c
 804846e:	75 3f                	jne    80484af <__do_global_dtors_aux+0x4f>
 8048470:	a1 20 a0 04 08       	mov    0x804a020,%eax
 8048475:	bb 08 9f 04 08       	mov    $0x8049f08,%ebx
 804847a:	81 eb 04 9f 04 08    	sub    $0x8049f04,%ebx
 8048480:	c1 fb 02             	sar    $0x2,%ebx
 8048483:	83 eb 01             	sub    $0x1,%ebx
 8048486:	39 d8                	cmp    %ebx,%eax
 8048488:	73 1e                	jae    80484a8 <__do_global_dtors_aux+0x48>
 804848a:	8d b6 00 00 00 00    	lea    0x0(%esi),%esi
 8048490:	83 c0 01             	add    $0x1,%eax
 8048493:	a3 20 a0 04 08       	mov    %eax,0x804a020
 8048498:	ff 14 85 04 9f 04 08 	call   *0x8049f04(,%eax,4)
 804849f:	a1 20 a0 04 08       	mov    0x804a020,%eax
 80484a4:	39 d8                	cmp    %ebx,%eax
 80484a6:	72 e8                	jb     8048490 <__do_global_dtors_aux+0x30>
 80484a8:	c6 05 1c a0 04 08 01 	movb   $0x1,0x804a01c
 80484af:	83 c4 04             	add    $0x4,%esp
 80484b2:	5b                   	pop    %ebx
 80484b3:	5d                   	pop    %ebp
 80484b4:	c3                   	ret    
 80484b5:	8d 74 26 00          	lea    0x0(%esi,%eiz,1),%esi
 80484b9:	8d bc 27 00 00 00 00 	lea    0x0(%edi,%eiz,1),%edi

080484c0 <frame_dummy>:
 80484c0:	55                   	push   %ebp
 80484c1:	89 e5                	mov    %esp,%ebp
 80484c3:	83 ec 18             	sub    $0x18,%esp
 80484c6:	a1 0c 9f 04 08       	mov    0x8049f0c,%eax
 80484cb:	85 c0                	test   %eax,%eax
 80484cd:	74 12                	je     80484e1 <frame_dummy+0x21>
 80484cf:	b8 00 00 00 00       	mov    $0x0,%eax
 80484d4:	85 c0                	test   %eax,%eax
 80484d6:	74 09                	je     80484e1 <frame_dummy+0x21>
 80484d8:	c7 04 24 0c 9f 04 08 	movl   $0x8049f0c,(%esp)
 80484df:	ff d0                	call   *%eax
 80484e1:	c9                   	leave  
 80484e2:	c3                   	ret    
 80484e3:	90                   	nop

080484e4 <main>:
 80484e4:	55                   	push   %ebp
 80484e5:	89 e5                	mov    %esp,%ebp
 80484e7:	b8 00 00 00 00       	mov    $0x0,%eax
 80484ec:	5d                   	pop    %ebp
 80484ed:	c3                   	ret    

080484ee <_Z41__static_initialization_and_destruction_0ii>:
 80484ee:	55                   	push   %ebp
 80484ef:	89 e5                	mov    %esp,%ebp
 80484f1:	83 ec 18             	sub    $0x18,%esp
 80484f4:	83 7d 08 01          	cmpl   $0x1,0x8(%ebp)
 80484f8:	75 32                	jne    804852c <_Z41__static_initialization_and_destruction_0ii+0x3e>
 80484fa:	81 7d 0c ff ff 00 00 	cmpl   $0xffff,0xc(%ebp)
 8048501:	75 29                	jne    804852c <_Z41__static_initialization_and_destruction_0ii+0x3e>
 8048503:	c7 04 24 24 a0 04 08 	movl   $0x804a024,(%esp)
 804850a:	e8 f1 fe ff ff       	call   8048400 <_ZNSt8ios_base4InitC1Ev@plt>
 804850f:	b8 20 84 04 08       	mov    $0x8048420,%eax
 8048514:	c7 44 24 08 18 a0 04 	movl   $0x804a018,0x8(%esp)
 804851b:	08 
 804851c:	c7 44 24 04 24 a0 04 	movl   $0x804a024,0x4(%esp)
 8048523:	08 
 8048524:	89 04 24             	mov    %eax,(%esp)
 8048527:	e8 b4 fe ff ff       	call   80483e0 <__cxa_atexit@plt>
 804852c:	c9                   	leave  
 804852d:	c3                   	ret    

0804852e <_GLOBAL__sub_I_main>:
 804852e:	55                   	push   %ebp
 804852f:	89 e5                	mov    %esp,%ebp
 8048531:	83 ec 18             	sub    $0x18,%esp
 8048534:	c7 44 24 04 ff ff 00 	movl   $0xffff,0x4(%esp)
 804853b:	00 
 804853c:	c7 04 24 01 00 00 00 	movl   $0x1,(%esp)
 8048543:	e8 a6 ff ff ff       	call   80484ee <_Z41__static_initialization_and_destruction_0ii>
 8048548:	c9                   	leave  
 8048549:	c3                   	ret    
 804854a:	90                   	nop
 804854b:	90                   	nop
 804854c:	90                   	nop
 804854d:	90                   	nop
 804854e:	90                   	nop
 804854f:	90                   	nop

08048550 <__libc_csu_init>:
 8048550:	55                   	push   %ebp
 8048551:	57                   	push   %edi
 8048552:	56                   	push   %esi
 8048553:	53                   	push   %ebx
 8048554:	e8 69 00 00 00       	call   80485c2 <__i686.get_pc_thunk.bx>
 8048559:	81 c3 9b 1a 00 00    	add    $0x1a9b,%ebx
 804855f:	83 ec 1c             	sub    $0x1c,%esp
 8048562:	8b 6c 24 30          	mov    0x30(%esp),%ebp
 8048566:	8d bb 08 ff ff ff    	lea    -0xf8(%ebx),%edi
 804856c:	e8 2f fe ff ff       	call   80483a0 <_init>
 8048571:	8d 83 04 ff ff ff    	lea    -0xfc(%ebx),%eax
 8048577:	29 c7                	sub    %eax,%edi
 8048579:	c1 ff 02             	sar    $0x2,%edi
 804857c:	85 ff                	test   %edi,%edi
 804857e:	74 29                	je     80485a9 <__libc_csu_init+0x59>
 8048580:	31 f6                	xor    %esi,%esi
 8048582:	8d b6 00 00 00 00    	lea    0x0(%esi),%esi
 8048588:	8b 44 24 38          	mov    0x38(%esp),%eax
 804858c:	89 2c 24             	mov    %ebp,(%esp)
 804858f:	89 44 24 08          	mov    %eax,0x8(%esp)
 8048593:	8b 44 24 34          	mov    0x34(%esp),%eax
 8048597:	89 44 24 04          	mov    %eax,0x4(%esp)
 804859b:	ff 94 b3 04 ff ff ff 	call   *-0xfc(%ebx,%esi,4)
 80485a2:	83 c6 01             	add    $0x1,%esi
 80485a5:	39 fe                	cmp    %edi,%esi
 80485a7:	75 df                	jne    8048588 <__libc_csu_init+0x38>
 80485a9:	83 c4 1c             	add    $0x1c,%esp
 80485ac:	5b                   	pop    %ebx
 80485ad:	5e                   	pop    %esi
 80485ae:	5f                   	pop    %edi
 80485af:	5d                   	pop    %ebp
 80485b0:	c3                   	ret    
 80485b1:	eb 0d                	jmp    80485c0 <__libc_csu_fini>
 80485b3:	90                   	nop
 80485b4:	90                   	nop
 80485b5:	90                   	nop
 80485b6:	90                   	nop
 80485b7:	90                   	nop
 80485b8:	90                   	nop
 80485b9:	90                   	nop
 80485ba:	90                   	nop
 80485bb:	90                   	nop
 80485bc:	90                   	nop
 80485bd:	90                   	nop
 80485be:	90                   	nop
 80485bf:	90                   	nop

080485c0 <__libc_csu_fini>:
 80485c0:	f3 c3                	repz ret 

080485c2 <__i686.get_pc_thunk.bx>:
 80485c2:	8b 1c 24             	mov    (%esp),%ebx
 80485c5:	c3                   	ret    
 80485c6:	90                   	nop
 80485c7:	90                   	nop
 80485c8:	90                   	nop
 80485c9:	90                   	nop
 80485ca:	90                   	nop
 80485cb:	90                   	nop
 80485cc:	90                   	nop
 80485cd:	90                   	nop
 80485ce:	90                   	nop
 80485cf:	90                   	nop

080485d0 <__do_global_ctors_aux>:
 80485d0:	55                   	push   %ebp
 80485d1:	89 e5                	mov    %esp,%ebp
 80485d3:	53                   	push   %ebx
 80485d4:	83 ec 04             	sub    $0x4,%esp
 80485d7:	a1 fc 9e 04 08       	mov    0x8049efc,%eax
 80485dc:	83 f8 ff             	cmp    $0xffffffff,%eax
 80485df:	74 13                	je     80485f4 <__do_global_ctors_aux+0x24>
 80485e1:	bb fc 9e 04 08       	mov    $0x8049efc,%ebx
 80485e6:	66 90                	xchg   %ax,%ax
 80485e8:	83 eb 04             	sub    $0x4,%ebx
 80485eb:	ff d0                	call   *%eax
 80485ed:	8b 03                	mov    (%ebx),%eax
 80485ef:	83 f8 ff             	cmp    $0xffffffff,%eax
 80485f2:	75 f4                	jne    80485e8 <__do_global_ctors_aux+0x18>
 80485f4:	83 c4 04             	add    $0x4,%esp
 80485f7:	5b                   	pop    %ebx
 80485f8:	5d                   	pop    %ebp
 80485f9:	c3                   	ret    
 80485fa:	90                   	nop
 80485fb:	90                   	nop

Disassembly of section .fini:

080485fc <_fini>:
 80485fc:	53                   	push   %ebx
 80485fd:	83 ec 08             	sub    $0x8,%esp
 8048600:	e8 00 00 00 00       	call   8048605 <_fini+0x9>
 8048605:	5b                   	pop    %ebx
 8048606:	81 c3 ef 19 00 00    	add    $0x19ef,%ebx
 804860c:	e8 4f fe ff ff       	call   8048460 <__do_global_dtors_aux>
 8048611:	83 c4 08             	add    $0x8,%esp
 8048614:	5b                   	pop    %ebx
 8048615:	c3                   	ret    
